; Function Attrs: nounwind uwtable
define internal i32 @__itt_state_set_init_3_0(i32 noundef %0) #0 {
  %2 = load volatile i64, ptr getelementptr inbounds nuw (i8, ptr @__itt__ittapi_global, i64 32), align 8, !tbaa !3
  %3 = icmp eq i64 %2, 0
  %4 = load ptr, ptr getelementptr inbounds nuw (i8, ptr @__itt__ittapi_global, i64 136), align 8
  %5 = icmp eq ptr %4, null
  %or.cond = select i1 %3, i1 %5, i1 false
  br i1 %or.cond, label %6, label %8

6:                                                ; preds = %1
  %7 = tail call i32 @__itt_init_ittlib(ptr noundef null, i32 noundef -1)
  br label %8

8:                                                ; preds = %6, %1
  %9 = load ptr, ptr @__itt_state_set_ptr__3_0, align 8, !tbaa !20
  %10 = icmp ne ptr %9, null
  %11 = icmp ne ptr %9, @__itt_state_set_init_3_0
  %or.cond3 = and i1 %10, %11
  br i1 %or.cond3, label %12, label %14

12:                                               ; preds = %8
  %13 = tail call i32 %9(i32 noundef %0) #14
  br label %14

14:                                               ; preds = %8, %12
  %.0 = phi i32 [ %13, %12 ], [ 0, %8 ]
  ret i32 %.0
}